target datalayout = "e-m:e-p270:32:32-p271:32:32-p272:64:64-i64:64-i128:128-f80:128-n8:16:32:64-S128"
target triple = "x86_64-unknown-linux-gnu"

%"struct.absl::time_internal::cctz::PosixTransition" = type { %"struct.absl::time_internal::cctz::PosixTransition::Date", %"struct.absl::time_internal::cctz::PosixTransition::Time" }
%"struct.absl::time_internal::cctz::PosixTransition::Date" = type { i32, %union.anon.0 }
%union.anon.0 = type { %"struct.absl::time_internal::cctz::PosixTransition::Date::NonLeapDay" }
%"struct.absl::time_internal::cctz::PosixTransition::Date::NonLeapDay" = type { i64 }
%"struct.absl::time_internal::cctz::PosixTransition::Time" = type { i64 }
%"struct.absl::time_internal::cctz::PosixTransition::Date::MonthWeekWeekday" = type { i8, i8, i8 }
%"struct.absl::time_internal::cctz::PosixTransition::Date::Day" = type { i64 }

; Function Attrs: mustprogress uwtable
define internal noundef ptr @_ZN4absl13time_internal4cctz12_GLOBAL__N_113ParseDateTimeEPKcPNS1_15PosixTransitionE(ptr noundef %p, ptr noundef %res) #0 {
entry:
  %p.addr = alloca ptr, align 8
  %res.addr = alloca ptr, align 8
  %month = alloca i32, align 4
  %week = alloca i32, align 4
  %weekday = alloca i32, align 4
  %day = alloca i32, align 4
  %day46 = alloca i32, align 4
  store ptr %p, ptr %p.addr, align 8
  store ptr %res, ptr %res.addr, align 8
  %0 = load ptr, ptr %p.addr, align 8
  %cmp = icmp ne ptr %0, null
  br i1 %cmp, label %land.lhs.true, label %if.end58

land.lhs.true:                                    ; preds = %entry
  %1 = load ptr, ptr %p.addr, align 8
  %2 = load i8, ptr %1, align 1
  %conv = sext i8 %2 to i32
  %cmp1 = icmp eq i32 %conv, 44
  br i1 %cmp1, label %if.then, label %if.end58

if.then:                                          ; preds = %land.lhs.true
  %3 = load ptr, ptr %p.addr, align 8
  %incdec.ptr = getelementptr inbounds i8, ptr %3, i32 1
  store ptr %incdec.ptr, ptr %p.addr, align 8
  %4 = load i8, ptr %incdec.ptr, align 1
  %conv2 = sext i8 %4 to i32
  %cmp3 = icmp eq i32 %conv2, 77
  br i1 %cmp3, label %if.then4, label %if.else

if.then4:                                         ; preds = %if.then
  store i32 0, ptr %month, align 4
  %5 = load ptr, ptr %p.addr, align 8
  %add.ptr = getelementptr inbounds i8, ptr %5, i64 1
  %call = call noundef ptr @_ZN4absl13time_internal4cctz12_GLOBAL__N_18ParseIntEPKciiPi(ptr noundef %add.ptr, i32 noundef 1, i32 noundef 12, ptr noundef %month)
  store ptr %call, ptr %p.addr, align 8
  %cmp5 = icmp ne ptr %call, null
  br i1 %cmp5, label %land.lhs.true6, label %if.end31

land.lhs.true6:                                   ; preds = %if.then4
  %6 = load ptr, ptr %p.addr, align 8
  %7 = load i8, ptr %6, align 1
  %conv7 = sext i8 %7 to i32
  %cmp8 = icmp eq i32 %conv7, 46
  br i1 %cmp8, label %if.then9, label %if.end31

if.then9:                                         ; preds = %land.lhs.true6
  store i32 0, ptr %week, align 4
  %8 = load ptr, ptr %p.addr, align 8
  %add.ptr10 = getelementptr inbounds i8, ptr %8, i64 1
  %call11 = call noundef ptr @_ZN4absl13time_internal4cctz12_GLOBAL__N_18ParseIntEPKciiPi(ptr noundef %add.ptr10, i32 noundef 1, i32 noundef 5, ptr noundef %week)
  store ptr %call11, ptr %p.addr, align 8
  %cmp12 = icmp ne ptr %call11, null
  br i1 %cmp12, label %land.lhs.true13, label %if.end30

land.lhs.true13:                                  ; preds = %if.then9
  %9 = load ptr, ptr %p.addr, align 8
  %10 = load i8, ptr %9, align 1
  %conv14 = sext i8 %10 to i32
  %cmp15 = icmp eq i32 %conv14, 46
  br i1 %cmp15, label %if.then16, label %if.end30

if.then16:                                        ; preds = %land.lhs.true13
  store i32 0, ptr %weekday, align 4
  %11 = load ptr, ptr %p.addr, align 8
  %add.ptr17 = getelementptr inbounds i8, ptr %11, i64 1
  %call18 = call noundef ptr @_ZN4absl13time_internal4cctz12_GLOBAL__N_18ParseIntEPKciiPi(ptr noundef %add.ptr17, i32 noundef 0, i32 noundef 6, ptr noundef %weekday)
  store ptr %call18, ptr %p.addr, align 8
  %cmp19 = icmp ne ptr %call18, null
  br i1 %cmp19, label %if.then20, label %if.end

if.then20:                                        ; preds = %if.then16
  %12 = load ptr, ptr %res.addr, align 8
  %date = getelementptr inbounds %"struct.absl::time_internal::cctz::PosixTransition", ptr %12, i32 0, i32 0
  %fmt = getelementptr inbounds %"struct.absl::time_internal::cctz::PosixTransition::Date", ptr %date, i32 0, i32 0
  store i32 2, ptr %fmt, align 8
  %13 = load i32, ptr %month, align 4
  %conv21 = trunc i32 %13 to i8
  %14 = load ptr, ptr %res.addr, align 8
  %date22 = getelementptr inbounds %"struct.absl::time_internal::cctz::PosixTransition", ptr %14, i32 0, i32 0
  %15 = getelementptr inbounds %"struct.absl::time_internal::cctz::PosixTransition::Date", ptr %date22, i32 0, i32 1
  %month23 = getelementptr inbounds %"struct.absl::time_internal::cctz::PosixTransition::Date::MonthWeekWeekday", ptr %15, i32 0, i32 0
  store i8 %conv21, ptr %month23, align 8
  %16 = load i32, ptr %week, align 4
  %conv24 = trunc i32 %16 to i8
  %17 = load ptr, ptr %res.addr, align 8
  %date25 = getelementptr inbounds %"struct.absl::time_internal::cctz::PosixTransition", ptr %17, i32 0, i32 0
  %18 = getelementptr inbounds %"struct.absl::time_internal::cctz::PosixTransition::Date", ptr %date25, i32 0, i32 1
  %week26 = getelementptr inbounds %"struct.absl::time_internal::cctz::PosixTransition::Date::MonthWeekWeekday", ptr %18, i32 0, i32 1
  store i8 %conv24, ptr %week26, align 1
  %19 = load i32, ptr %weekday, align 4
  %conv27 = trunc i32 %19 to i8
  %20 = load ptr, ptr %res.addr, align 8
  %date28 = getelementptr inbounds %"struct.absl::time_internal::cctz::PosixTransition", ptr %20, i32 0, i32 0
  %21 = getelementptr inbounds %"struct.absl::time_internal::cctz::PosixTransition::Date", ptr %date28, i32 0, i32 1
  %weekday29 = getelementptr inbounds %"struct.absl::time_internal::cctz::PosixTransition::Date::MonthWeekWeekday", ptr %21, i32 0, i32 2
  store i8 %conv27, ptr %weekday29, align 2
  br label %if.end

if.end:                                           ; preds = %if.then20, %if.then16
  br label %if.end30

if.end30:                                         ; preds = %if.end, %land.lhs.true13, %if.then9
  br label %if.end31

if.end31:                                         ; preds = %if.end30, %land.lhs.true6, %if.then4
  br label %if.end57

if.else:                                          ; preds = %if.then
  %22 = load ptr, ptr %p.addr, align 8
  %23 = load i8, ptr %22, align 1
  %conv32 = sext i8 %23 to i32
  %cmp33 = icmp eq i32 %conv32, 74
  br i1 %cmp33, label %if.then34, label %if.else45

if.then34:                                        ; preds = %if.else
  store i32 0, ptr %day, align 4
  %24 = load ptr, ptr %p.addr, align 8
  %add.ptr35 = getelementptr inbounds i8, ptr %24, i64 1
  %call36 = call noundef ptr @_ZN4absl13time_internal4cctz12_GLOBAL__N_18ParseIntEPKciiPi(ptr noundef %add.ptr35, i32 noundef 1, i32 noundef 365, ptr noundef %day)
  store ptr %call36, ptr %p.addr, align 8
  %cmp37 = icmp ne ptr %call36, null
  br i1 %cmp37, label %if.then38, label %if.end44

if.then38:                                        ; preds = %if.then34
  %25 = load ptr, ptr %res.addr, align 8
  %date39 = getelementptr inbounds %"struct.absl::time_internal::cctz::PosixTransition", ptr %25, i32 0, i32 0
  %fmt40 = getelementptr inbounds %"struct.absl::time_internal::cctz::PosixTransition::Date", ptr %date39, i32 0, i32 0
  store i32 0, ptr %fmt40, align 8
  %26 = load i32, ptr %day, align 4
  %conv41 = sext i32 %26 to i64
  %27 = load ptr, ptr %res.addr, align 8
  %date42 = getelementptr inbounds %"struct.absl::time_internal::cctz::PosixTransition", ptr %27, i32 0, i32 0
  %28 = getelementptr inbounds %"struct.absl::time_internal::cctz::PosixTransition::Date", ptr %date42, i32 0, i32 1
  %day43 = getelementptr inbounds %"struct.absl::time_internal::cctz::PosixTransition::Date::NonLeapDay", ptr %28, i32 0, i32 0
  store i64 %conv41, ptr %day43, align 8
  br label %if.end44

if.end44:                                         ; preds = %if.then38, %if.then34
  br label %if.end56

if.else45:                                        ; preds = %if.else
  store i32 0, ptr %day46, align 4
  %29 = load ptr, ptr %p.addr, align 8
  %call47 = call noundef ptr @_ZN4absl13time_internal4cctz12_GLOBAL__N_18ParseIntEPKciiPi(ptr noundef %29, i32 noundef 0, i32 noundef 365, ptr noundef %day46)
  store ptr %call47, ptr %p.addr, align 8
  %cmp48 = icmp ne ptr %call47, null
  br i1 %cmp48, label %if.then49, label %if.end55

if.then49:                                        ; preds = %if.else45
  %30 = load ptr, ptr %res.addr, align 8
  %date50 = getelementptr inbounds %"struct.absl::time_internal::cctz::PosixTransition", ptr %30, i32 0, i32 0
  %fmt51 = getelementptr inbounds %"struct.absl::time_internal::cctz::PosixTransition::Date", ptr %date50, i32 0, i32 0
  store i32 1, ptr %fmt51, align 8
  %31 = load i32, ptr %day46, align 4
  %conv52 = sext i32 %31 to i64
  %32 = load ptr, ptr %res.addr, align 8
  %date53 = getelementptr inbounds %"struct.absl::time_internal::cctz::PosixTransition", ptr %32, i32 0, i32 0
  %33 = getelementptr inbounds %"struct.absl::time_internal::cctz::PosixTransition::Date", ptr %date53, i32 0, i32 1
  %day54 = getelementptr inbounds %"struct.absl::time_internal::cctz::PosixTransition::Date::Day", ptr %33, i32 0, i32 0
  store i64 %conv52, ptr %day54, align 8
  br label %if.end55

if.end55:                                         ; preds = %if.then49, %if.else45
  br label %if.end56

if.end56:                                         ; preds = %if.end55, %if.end44
  br label %if.end57

if.end57:                                         ; preds = %if.end56, %if.end31
  br label %if.end58

if.end58:                                         ; preds = %if.end57, %land.lhs.true, %entry
  %34 = load ptr, ptr %p.addr, align 8
  %cmp59 = icmp ne ptr %34, null
  br i1 %cmp59, label %if.then60, label %if.end69

if.then60:                                        ; preds = %if.end58
  %35 = load ptr, ptr %res.addr, align 8
  %time = getelementptr inbounds %"struct.absl::time_internal::cctz::PosixTransition", ptr %35, i32 0, i32 1
  %offset = getelementptr inbounds %"struct.absl::time_internal::cctz::PosixTransition::Time", ptr %time, i32 0, i32 0
  store i64 7200, ptr %offset, align 8
  %36 = load ptr, ptr %p.addr, align 8
  %37 = load i8, ptr %36, align 1
  %conv61 = sext i8 %37 to i32
  %cmp62 = icmp eq i32 %conv61, 47
  br i1 %cmp62, label %if.then63, label %if.end68

if.then63:                                        ; preds = %if.then60
  %38 = load ptr, ptr %p.addr, align 8
  %add.ptr64 = getelementptr inbounds i8, ptr %38, i64 1
  %39 = load ptr, ptr %res.addr, align 8
  %time65 = getelementptr inbounds %"struct.absl::time_internal::cctz::PosixTransition", ptr %39, i32 0, i32 1
  %offset66 = getelementptr inbounds %"struct.absl::time_internal::cctz::PosixTransition::Time", ptr %time65, i32 0, i32 0
  %call67 = call noundef ptr @_ZN4absl13time_internal4cctz12_GLOBAL__N_111ParseOffsetEPKciiiPl(ptr noundef %add.ptr64, i32 noundef -167, i32 noundef 167, i32 noundef 1, ptr noundef %offset66)
  store ptr %call67, ptr %p.addr, align 8
  br label %if.end68

if.end68:                                         ; preds = %if.then63, %if.then60
  br label %if.end69

if.end69:                                         ; preds = %if.end68, %if.end58
  %40 = load ptr, ptr %p.addr, align 8
  ret ptr %40
}