; Function Attrs: mustprogress nofree nounwind memory(readwrite, inaccessiblemem: none) uwtable
define internal fastcc noundef ptr @_ZN4absl13time_internal4cctz12_GLOBAL__N_113ParseDateTimeEPKcPNS1_15PosixTransitionE(ptr noundef %p, ptr noundef writeonly captures(none) %res) unnamed_addr #3 {
entry:
  %weekday = alloca i32, align 4
  %cmp.not = icmp eq ptr %p, null
  br i1 %cmp.not, label %if.end69, label %land.lhs.true

land.lhs.true:                                    ; preds = %entry
  %0 = load i8, ptr %p, align 1
  %cmp1 = icmp eq i8 %0, 44
  br i1 %cmp1, label %if.then, label %if.then60

if.then:                                          ; preds = %land.lhs.true
  %incdec.ptr.ptr = getelementptr inbounds nuw i8, ptr %p, i64 1
  %1 = load i8, ptr %incdec.ptr.ptr, align 1
  switch i8 %1, label %if.else45 [
    i8 77, label %if.then4
    i8 74, label %if.then34
  ]

if.then4:                                         ; preds = %if.then
  %add.ptr.ptr = getelementptr inbounds nuw i8, ptr %p, i64 2
  %2 = load i8, ptr %add.ptr.ptr, align 1
  %conv17.i = sext i8 %2 to i32
  %memchr18.i = tail call ptr @memchr(ptr noundef nonnull dereferenceable(1) @_ZN4absl13time_internal4cctz12_GLOBAL__N_17kDigitsE, i32 %conv17.i, i64 11)
  %tobool.not19.i = icmp eq ptr %memchr18.i, null
  br i1 %tobool.not19.i, label %if.end69, label %for.body.i

for.body.i:                                       ; preds = %if.then4, %if.end7.i
  %memchr22.i = phi ptr [ %memchr.i, %if.end7.i ], [ %memchr18.i, %if.then4 ]
  %p.addr.021.i.idx = phi i64 [ %p.addr.021.i.add, %if.end7.i ], [ 2, %if.then4 ]
  %value.020.i = phi i32 [ %add.i, %if.end7.i ], [ 0, %if.then4 ]
  %sub.ptr.lhs.cast.i = ptrtoint ptr %memchr22.i to i64
  %3 = trunc i64 %sub.ptr.lhs.cast.i to i32
  %conv1.i = sub i32 %3, ptrtoint (ptr @_ZN4absl13time_internal4cctz12_GLOBAL__N_17kDigitsE to i32)
  %cmp.i = icmp sgt i32 %conv1.i, 9
  br i1 %cmp.i, label %for.end.i, label %if.end.i

if.end.i:                                         ; preds = %for.body.i
  %cmp2.i = icmp sgt i32 %value.020.i, 214748364
  br i1 %cmp2.i, label %if.end69, label %if.end4.i

if.end4.i:                                        ; preds = %if.end.i
  %mul.i = mul nsw i32 %value.020.i, 10
  %sub.i = sub nsw i32 2147483647, %conv1.i
  %cmp5.i = icmp sgt i32 %mul.i, %sub.i
  br i1 %cmp5.i, label %if.end69, label %if.end7.i

if.end7.i:                                        ; preds = %if.end4.i
  %add.i = add nsw i32 %conv1.i, %mul.i
  %p.addr.021.i.add = add nuw nsw i64 %p.addr.021.i.idx, 1
  %incdec.ptr.i.ptr = getelementptr inbounds nuw i8, ptr %p, i64 %p.addr.021.i.add
  %4 = load i8, ptr %incdec.ptr.i.ptr, align 1
  %conv.i = sext i8 %4 to i32
  %memchr.i = tail call ptr @memchr(ptr noundef nonnull dereferenceable(1) @_ZN4absl13time_internal4cctz12_GLOBAL__N_17kDigitsE, i32 %conv.i, i64 11)
  %tobool.not.i = icmp eq ptr %memchr.i, null
  br i1 %tobool.not.i, label %for.end.i, label %for.body.i, !llvm.loop !7

for.end.i:                                        ; preds = %if.end7.i, %for.body.i
  %value.0.lcssa.i = phi i32 [ %add.i, %if.end7.i ], [ %value.020.i, %for.body.i ]
  %p.addr.0.lcssa.i.idx = phi i64 [ %p.addr.021.i.add, %if.end7.i ], [ %p.addr.021.i.idx, %for.body.i ]
  %p.addr.0.lcssa.i.ptr = getelementptr inbounds nuw i8, ptr %p, i64 %p.addr.0.lcssa.i.idx
  %cmp8.i = icmp eq i64 %p.addr.0.lcssa.i.idx, 2
  %5 = add i32 %value.0.lcssa.i, -13
  %6 = icmp ult i32 %5, -12
  %or.cond14.i = select i1 %cmp8.i, i1 true, i1 %6
  br i1 %or.cond14.i, label %if.end69, label %land.lhs.true6

land.lhs.true6:                                   ; preds = %for.end.i
  %7 = load i8, ptr %p.addr.0.lcssa.i.ptr, align 1
  %cmp8 = icmp eq i8 %7, 46
  br i1 %cmp8, label %if.then9, label %if.then60

if.then9:                                         ; preds = %land.lhs.true6
  %add.ptr10.ptr = getelementptr inbounds nuw i8, ptr %p.addr.0.lcssa.i.ptr, i64 1
  %8 = load i8, ptr %add.ptr10.ptr, align 1
  %conv17.i24 = sext i8 %8 to i32
  %memchr18.i25 = tail call ptr @memchr(ptr noundef nonnull dereferenceable(1) @_ZN4absl13time_internal4cctz12_GLOBAL__N_17kDigitsE, i32 %conv17.i24, i64 11)
  %tobool.not19.i26 = icmp eq ptr %memchr18.i25, null
  br i1 %tobool.not19.i26, label %if.end69, label %for.body.i27

for.body.i27:                                     ; preds = %if.then9, %if.end7.i40
  %memchr22.i28 = phi ptr [ %memchr.i44, %if.end7.i40 ], [ %memchr18.i25, %if.then9 ]
  %p.addr.021.i29.idx = phi i64 [ %p.addr.021.i29.add, %if.end7.i40 ], [ 1, %if.then9 ]
  %value.020.i30 = phi i32 [ %add.i41, %if.end7.i40 ], [ 0, %if.then9 ]
  %sub.ptr.lhs.cast.i31 = ptrtoint ptr %memchr22.i28 to i64
  %9 = trunc i64 %sub.ptr.lhs.cast.i31 to i32
  %conv1.i32 = sub i32 %9, ptrtoint (ptr @_ZN4absl13time_internal4cctz12_GLOBAL__N_17kDigitsE to i32)
  %cmp.i33 = icmp sgt i32 %conv1.i32, 9
  br i1 %cmp.i33, label %for.end.i46, label %if.end.i34

if.end.i34:                                       ; preds = %for.body.i27
  %cmp2.i35 = icmp sgt i32 %value.020.i30, 214748364
  br i1 %cmp2.i35, label %if.end69, label %if.end4.i36

if.end4.i36:                                      ; preds = %if.end.i34
  %mul.i37 = mul nsw i32 %value.020.i30, 10
  %sub.i38 = sub nsw i32 2147483647, %conv1.i32
  %cmp5.i39 = icmp sgt i32 %mul.i37, %sub.i38
  br i1 %cmp5.i39, label %if.end69, label %if.end7.i40

if.end7.i40:                                      ; preds = %if.end4.i36
  %add.i41 = add nsw i32 %conv1.i32, %mul.i37
  %p.addr.021.i29.add = add nuw nsw i64 %p.addr.021.i29.idx, 1
  %incdec.ptr.i42.ptr = getelementptr inbounds nuw i8, ptr %p.addr.0.lcssa.i.ptr, i64 %p.addr.021.i29.add
  %10 = load i8, ptr %incdec.ptr.i42.ptr, align 1
  %conv.i43 = sext i8 %10 to i32
  %memchr.i44 = tail call ptr @memchr(ptr noundef nonnull dereferenceable(1) @_ZN4absl13time_internal4cctz12_GLOBAL__N_17kDigitsE, i32 %conv.i43, i64 11)
  %tobool.not.i45 = icmp eq ptr %memchr.i44, null
  br i1 %tobool.not.i45, label %for.end.i46, label %for.body.i27, !llvm.loop !7

for.end.i46:                                      ; preds = %if.end7.i40, %for.body.i27
  %value.0.lcssa.i47 = phi i32 [ %add.i41, %if.end7.i40 ], [ %value.020.i30, %for.body.i27 ]
  %p.addr.0.lcssa.i48.idx = phi i64 [ %p.addr.021.i29.add, %if.end7.i40 ], [ %p.addr.021.i29.idx, %for.body.i27 ]
  %p.addr.0.lcssa.i48.ptr = getelementptr inbounds nuw i8, ptr %p.addr.0.lcssa.i.ptr, i64 %p.addr.0.lcssa.i48.idx
  %cmp8.i49 = icmp eq i64 %p.addr.0.lcssa.i48.idx, 1
  %11 = add i32 %value.0.lcssa.i47, -6
  %12 = icmp ult i32 %11, -5
  %or.cond14.i52 = select i1 %cmp8.i49, i1 true, i1 %12
  br i1 %or.cond14.i52, label %if.end69, label %land.lhs.true13

land.lhs.true13:                                  ; preds = %for.end.i46
  %13 = load i8, ptr %p.addr.0.lcssa.i48.ptr, align 1
  %cmp15 = icmp eq i8 %13, 46
  br i1 %cmp15, label %if.then16, label %if.then60

if.then16:                                        ; preds = %land.lhs.true13
  store i32 0, ptr %weekday, align 4
  %add.ptr17 = getelementptr inbounds nuw i8, ptr %p.addr.0.lcssa.i48.ptr, i64 1
  %call18 = call fastcc noundef ptr @_ZN4absl13time_internal4cctz12_GLOBAL__N_18ParseIntEPKciiPi(ptr noundef %add.ptr17, i32 noundef 0, i32 noundef 6, ptr noundef %weekday)
  %cmp19.not = icmp eq ptr %call18, null
  br i1 %cmp19.not, label %if.end69, label %if.then20

if.then20:                                        ; preds = %if.then16
  store i32 2, ptr %res, align 8
  %conv21 = trunc nuw i32 %value.0.lcssa.i to i8
  %14 = getelementptr inbounds nuw i8, ptr %res, i64 8
  store i8 %conv21, ptr %14, align 8
  %conv24 = trunc nuw i32 %value.0.lcssa.i47 to i8
  %week26 = getelementptr inbounds nuw i8, ptr %res, i64 9
  store i8 %conv24, ptr %week26, align 1
  %15 = load i32, ptr %weekday, align 4
  %conv27 = trunc i32 %15 to i8
  %weekday29 = getelementptr inbounds nuw i8, ptr %res, i64 10
  store i8 %conv27, ptr %weekday29, align 2
  br label %if.then60

if.then34:                                        ; preds = %if.then
  %add.ptr35.ptr = getelementptr inbounds nuw i8, ptr %p, i64 2
  %16 = load i8, ptr %add.ptr35.ptr, align 1
  %conv17.i56 = sext i8 %16 to i32
  %memchr18.i57 = tail call ptr @memchr(ptr noundef nonnull dereferenceable(1) @_ZN4absl13time_internal4cctz12_GLOBAL__N_17kDigitsE, i32 %conv17.i56, i64 11)
  %tobool.not19.i58 = icmp eq ptr %memchr18.i57, null
  br i1 %tobool.not19.i58, label %if.end69, label %for.body.i59

for.body.i59:                                     ; preds = %if.then34, %if.end7.i72
  %memchr22.i60 = phi ptr [ %memchr.i76, %if.end7.i72 ], [ %memchr18.i57, %if.then34 ]
  %p.addr.021.i61.idx = phi i64 [ %p.addr.021.i61.add, %if.end7.i72 ], [ 2, %if.then34 ]
  %value.020.i62 = phi i32 [ %add.i73, %if.end7.i72 ], [ 0, %if.then34 ]
  %sub.ptr.lhs.cast.i63 = ptrtoint ptr %memchr22.i60 to i64
  %17 = trunc i64 %sub.ptr.lhs.cast.i63 to i32
  %conv1.i64 = sub i32 %17, ptrtoint (ptr @_ZN4absl13time_internal4cctz12_GLOBAL__N_17kDigitsE to i32)
  %cmp.i65 = icmp sgt i32 %conv1.i64, 9
  br i1 %cmp.i65, label %for.end.i78, label %if.end.i66

if.end.i66:                                       ; preds = %for.body.i59
  %cmp2.i67 = icmp sgt i32 %value.020.i62, 214748364
  br i1 %cmp2.i67, label %if.end69, label %if.end4.i68

if.end4.i68:                                      ; preds = %if.end.i66
  %mul.i69 = mul nsw i32 %value.020.i62, 10
  %sub.i70 = sub nsw i32 2147483647, %conv1.i64
  %cmp5.i71 = icmp sgt i32 %mul.i69, %sub.i70
  br i1 %cmp5.i71, label %if.end69, label %if.end7.i72

if.end7.i72:                                      ; preds = %if.end4.i68
  %add.i73 = add nsw i32 %conv1.i64, %mul.i69
  %p.addr.021.i61.add = add nuw nsw i64 %p.addr.021.i61.idx, 1
  %incdec.ptr.i74.ptr = getelementptr inbounds nuw i8, ptr %p, i64 %p.addr.021.i61.add
  %18 = load i8, ptr %incdec.ptr.i74.ptr, align 1
  %conv.i75 = sext i8 %18 to i32
  %memchr.i76 = tail call ptr @memchr(ptr noundef nonnull dereferenceable(1) @_ZN4absl13time_internal4cctz12_GLOBAL__N_17kDigitsE, i32 %conv.i75, i64 11)
  %tobool.not.i77 = icmp eq ptr %memchr.i76, null
  br i1 %tobool.not.i77, label %for.end.i78, label %for.body.i59, !llvm.loop !7

for.end.i78:                                      ; preds = %if.end7.i72, %for.body.i59
  %value.0.lcssa.i79 = phi i32 [ %add.i73, %if.end7.i72 ], [ %value.020.i62, %for.body.i59 ]
  %p.addr.0.lcssa.i80.idx = phi i64 [ %p.addr.021.i61.add, %if.end7.i72 ], [ %p.addr.021.i61.idx, %for.body.i59 ]
  %cmp8.i81 = icmp eq i64 %p.addr.0.lcssa.i80.idx, 2
  %19 = add i32 %value.0.lcssa.i79, -366
  %20 = icmp ult i32 %19, -365
  %or.cond14.i84 = select i1 %cmp8.i81, i1 true, i1 %20
  br i1 %or.cond14.i84, label %if.end69, label %if.then38

if.then38:                                        ; preds = %for.end.i78
  %p.addr.0.lcssa.i80.ptr = getelementptr inbounds nuw i8, ptr %p, i64 %p.addr.0.lcssa.i80.idx
  store i32 0, ptr %res, align 8
  %conv41 = zext nneg i32 %value.0.lcssa.i79 to i64
  %21 = getelementptr inbounds nuw i8, ptr %res, i64 8
  store i64 %conv41, ptr %21, align 8
  br label %if.then60

if.else45:                                        ; preds = %if.then
  %conv17.i88 = sext i8 %1 to i32
  %memchr18.i89 = tail call ptr @memchr(ptr noundef nonnull dereferenceable(1) @_ZN4absl13time_internal4cctz12_GLOBAL__N_17kDigitsE, i32 %conv17.i88, i64 11)
  %tobool.not19.i90 = icmp eq ptr %memchr18.i89, null
  br i1 %tobool.not19.i90, label %if.end69, label %for.body.i91

for.body.i91:                                     ; preds = %if.else45, %if.end7.i104
  %memchr22.i92 = phi ptr [ %memchr.i108, %if.end7.i104 ], [ %memchr18.i89, %if.else45 ]
  %p.addr.021.i93.idx = phi i64 [ %p.addr.021.i93.add, %if.end7.i104 ], [ 1, %if.else45 ]
  %value.020.i94 = phi i32 [ %add.i105, %if.end7.i104 ], [ 0, %if.else45 ]
  %sub.ptr.lhs.cast.i95 = ptrtoint ptr %memchr22.i92 to i64
  %22 = trunc i64 %sub.ptr.lhs.cast.i95 to i32
  %conv1.i96 = sub i32 %22, ptrtoint (ptr @_ZN4absl13time_internal4cctz12_GLOBAL__N_17kDigitsE to i32)
  %cmp.i97 = icmp sgt i32 %conv1.i96, 9
  br i1 %cmp.i97, label %for.end.i110, label %if.end.i98

if.end.i98:                                       ; preds = %for.body.i91
  %cmp2.i99 = icmp sgt i32 %value.020.i94, 214748364
  br i1 %cmp2.i99, label %if.end69, label %if.end4.i100

if.end4.i100:                                     ; preds = %if.end.i98
  %mul.i101 = mul nsw i32 %value.020.i94, 10
  %sub.i102 = sub nsw i32 2147483647, %conv1.i96
  %cmp5.i103 = icmp sgt i32 %mul.i101, %sub.i102
  br i1 %cmp5.i103, label %if.end69, label %if.end7.i104

if.end7.i104:                                     ; preds = %if.end4.i100
  %add.i105 = add nsw i32 %conv1.i96, %mul.i101
  %p.addr.021.i93.add = add nuw nsw i64 %p.addr.021.i93.idx, 1
  %incdec.ptr.i106.ptr = getelementptr inbounds nuw i8, ptr %p, i64 %p.addr.021.i93.add
  %23 = load i8, ptr %incdec.ptr.i106.ptr, align 1
  %conv.i107 = sext i8 %23 to i32
  %memchr.i108 = tail call ptr @memchr(ptr noundef nonnull dereferenceable(1) @_ZN4absl13time_internal4cctz12_GLOBAL__N_17kDigitsE, i32 %conv.i107, i64 11)
  %tobool.not.i109 = icmp eq ptr %memchr.i108, null
  br i1 %tobool.not.i109, label %for.end.i110, label %for.body.i91, !llvm.loop !7

for.end.i110:                                     ; preds = %if.end7.i104, %for.body.i91
  %value.0.lcssa.i111 = phi i32 [ %add.i105, %if.end7.i104 ], [ %value.020.i94, %for.body.i91 ]
  %p.addr.0.lcssa.i112.idx = phi i64 [ %p.addr.021.i93.add, %if.end7.i104 ], [ %p.addr.021.i93.idx, %for.body.i91 ]
  %cmp8.i113 = icmp eq i64 %p.addr.0.lcssa.i112.idx, 1
  %24 = icmp ugt i32 %value.0.lcssa.i111, 365
  %or.cond14.i116 = select i1 %cmp8.i113, i1 true, i1 %24
  br i1 %or.cond14.i116, label %if.end69, label %if.then49

if.then49:                                        ; preds = %for.end.i110
  %p.addr.0.lcssa.i112.ptr = getelementptr inbounds nuw i8, ptr %p, i64 %p.addr.0.lcssa.i112.idx
  store i32 1, ptr %res, align 8
  %conv52 = zext nneg i32 %value.0.lcssa.i111 to i64
  %25 = getelementptr inbounds nuw i8, ptr %res, i64 8
  store i64 %conv52, ptr %25, align 8
  br label %if.then60

if.then60:                                        ; preds = %land.lhs.true, %if.then38, %if.then49, %land.lhs.true6, %if.then20, %land.lhs.true13
  %p.addr.0 = phi ptr [ %call18, %if.then20 ], [ %p.addr.0.lcssa.i48.ptr, %land.lhs.true13 ], [ %p.addr.0.lcssa.i.ptr, %land.lhs.true6 ], [ %p.addr.0.lcssa.i80.ptr, %if.then38 ], [ %p.addr.0.lcssa.i112.ptr, %if.then49 ], [ %p, %land.lhs.true ]
  %time = getelementptr inbounds nuw i8, ptr %res, i64 16
  store i64 7200, ptr %time, align 8
  %26 = load i8, ptr %p.addr.0, align 1
  %cmp62 = icmp eq i8 %26, 47
  br i1 %cmp62, label %if.then63, label %if.end69

if.then63:                                        ; preds = %if.then60
  %add.ptr64 = getelementptr inbounds nuw i8, ptr %p.addr.0, i64 1
  %call67 = tail call fastcc noundef ptr @_ZN4absl13time_internal4cctz12_GLOBAL__N_111ParseOffsetEPKciiiPl(ptr noundef nonnull %add.ptr64, i32 noundef -167, i32 noundef 167, i32 noundef 1, ptr noundef nonnull %time)
  br label %if.end69

if.end69:                                         ; preds = %if.end4.i68, %if.end.i66, %if.end4.i, %if.end.i, %if.end4.i36, %if.end.i34, %if.end4.i100, %if.end.i98, %if.else45, %for.end.i110, %if.then34, %for.end.i78, %if.then9, %for.end.i46, %if.then4, %for.end.i, %entry, %if.then16, %if.then60, %if.then63
  %p.addr.1 = phi ptr [ %call67, %if.then63 ], [ %p.addr.0, %if.then60 ], [ null, %if.then16 ], [ null, %entry ], [ null, %for.end.i ], [ null, %if.then4 ], [ null, %for.end.i46 ], [ null, %if.then9 ], [ null, %for.end.i78 ], [ null, %if.then34 ], [ null, %for.end.i110 ], [ null, %if.else45 ], [ null, %if.end.i98 ], [ null, %if.end4.i100 ], [ null, %if.end.i34 ], [ null, %if.end4.i36 ], [ null, %if.end.i ], [ null, %if.end4.i ], [ null, %if.end.i66 ], [ null, %if.end4.i68 ]
  ret ptr %p.addr.1
}